target datalayout = "e-m:e-p270:32:32-p271:32:32-p272:64:64-i64:64-i128:128-f80:128-n8:16:32:64-S128"
target triple = "x86_64-pc-linux-gnu"

%struct.send_pack_args = type { ptr, i16, ptr }

@args = internal global %struct.send_pack_args zeroinitializer, align 8
@.str.46 = private unnamed_addr constant [13 x i8] c"push.gpgsign\00", align 1
@.str.47 = private unnamed_addr constant [9 x i8] c"if-asked\00", align 1
@.str.48 = private unnamed_addr constant [23 x i8] c"invalid value for '%s'\00", align 1
@.str.49 = private unnamed_addr constant [1 x i8] zeroinitializer, align 1
@git_gettext_enabled = external global i32, align 4

; Function Attrs: inlinehint nounwind uwtable
define internal i32 @const_error() #4 {
  ret i32 -1
}

; Function Attrs: inlinehint nounwind uwtable
define internal ptr @_(ptr noundef %0) #4 {
  %2 = alloca ptr, align 8
  %3 = alloca ptr, align 8
  store ptr %0, ptr %3, align 8, !tbaa !11
  %4 = load ptr, ptr %3, align 8, !tbaa !11
  %5 = load i8, ptr %4, align 1, !tbaa !67
  %6 = icmp ne i8 %5, 0
  br i1 %6, label %8, label %7

7:                                                ; preds = %1
  store ptr @.str.49, ptr %2, align 8
  br label %16

8:                                                ; preds = %1
  %9 = load i32, ptr @git_gettext_enabled, align 4, !tbaa !4
  %10 = icmp ne i32 %9, 0
  br i1 %10, label %13, label %11

11:                                               ; preds = %8
  %12 = load ptr, ptr %3, align 8, !tbaa !11
  store ptr %12, ptr %2, align 8
  br label %16

13:                                               ; preds = %8
  %14 = load ptr, ptr %3, align 8, !tbaa !11
  %15 = call ptr @dcgettext(ptr noundef null, ptr noundef %14, i32 noundef 5) #9
  store ptr %15, ptr %2, align 8
  br label %16

16:                                               ; preds = %13, %11, %7
  %17 = load ptr, ptr %2, align 8
  ret ptr %17
}

; Function Attrs: nounwind uwtable
define internal i32 @send_pack_config(ptr noundef %0, ptr noundef %1, ptr noundef %2, ptr noundef %3) #0 {
  %5 = alloca i32, align 4
  %6 = alloca ptr, align 8
  %7 = alloca ptr, align 8
  %8 = alloca ptr, align 8
  %9 = alloca ptr, align 8
  store ptr %0, ptr %6, align 8, !tbaa !11
  store ptr %1, ptr %7, align 8, !tbaa !11
  store ptr %2, ptr %8, align 8, !tbaa !54
  store ptr %3, ptr %9, align 8, !tbaa !53
  %10 = load ptr, ptr %6, align 8, !tbaa !11
  %11 = call i32 @strcmp(ptr noundef %10, ptr noundef @.str.46) #11
  %12 = icmp ne i32 %11, 0
  br i1 %12, label %39, label %13

13:                                               ; preds = %4
  %14 = load ptr, ptr %7, align 8, !tbaa !11
  %15 = call i32 @git_parse_maybe_bool(ptr noundef %14)
  switch i32 %15, label %24 [
    i32 0, label %16
    i32 1, label %20
  ]

16:                                               ; preds = %13
  %17 = load i16, ptr getelementptr inbounds nuw (%struct.send_pack_args, ptr @args, i32 0, i32 1), align 8
  %18 = and i16 %17, -1537
  %19 = or i16 %18, 0
  store i16 %19, ptr getelementptr inbounds nuw (%struct.send_pack_args, ptr @args, i32 0, i32 1), align 8
  br label %38

20:                                               ; preds = %13
  %21 = load i16, ptr getelementptr inbounds nuw (%struct.send_pack_args, ptr @args, i32 0, i32 1), align 8
  %22 = and i16 %21, -1537
  %23 = or i16 %22, 1024
  store i16 %23, ptr getelementptr inbounds nuw (%struct.send_pack_args, ptr @args, i32 0, i32 1), align 8
  br label %38

24:                                               ; preds = %13
  %25 = load ptr, ptr %7, align 8, !tbaa !11
  %26 = call i32 @strcasecmp(ptr noundef %25, ptr noundef @.str.47) #11
  %27 = icmp ne i32 %26, 0
  br i1 %27, label %32, label %28

28:                                               ; preds = %24
  %29 = load i16, ptr getelementptr inbounds nuw (%struct.send_pack_args, ptr @args, i32 0, i32 1), align 8
  %30 = and i16 %29, -1537
  %31 = or i16 %30, 512
  store i16 %31, ptr getelementptr inbounds nuw (%struct.send_pack_args, ptr @args, i32 0, i32 1), align 8
  br label %37

32:                                               ; preds = %24
  %33 = call ptr @_(ptr noundef @.str.48)
  %34 = load ptr, ptr %6, align 8, !tbaa !11
  %35 = call i32 (ptr, ...) @error(ptr noundef %33, ptr noundef %34)
  %36 = call i32 @const_error()
  store i32 %36, ptr %5, align 4
  br label %45

37:                                               ; preds = %28
  br label %38

38:                                               ; preds = %37, %20, %16
  br label %39

39:                                               ; preds = %38, %4
  %40 = load ptr, ptr %6, align 8, !tbaa !11
  %41 = load ptr, ptr %7, align 8, !tbaa !11
  %42 = load ptr, ptr %8, align 8, !tbaa !54
  %43 = load ptr, ptr %9, align 8, !tbaa !53
  %44 = call i32 @git_default_config(ptr noundef %40, ptr noundef %41, ptr noundef %42, ptr noundef %43)
  store i32 %44, ptr %5, align 4
  br label %45

45:                                               ; preds = %39, %32
  %46 = load i32, ptr %5, align 4
  ret i32 %46
}