; Function Attrs: nounwind uwtable
define internal i32 @send_pack_config(ptr noundef %0, ptr noundef %1, ptr noundef %2, ptr noundef %3) #0 {
  %5 = tail call i32 @strcmp(ptr noundef nonnull dereferenceable(1) %0, ptr noundef nonnull dereferenceable(13) @.str.46) #13
  %.not = icmp eq i32 %5, 0
  br i1 %.not, label %6, label %26

6:                                                ; preds = %4
  %7 = tail call i32 @git_parse_maybe_bool(ptr noundef %1) #10
  switch i32 %7, label %15 [
    i32 0, label %8
    i32 1, label %11
  ]

8:                                                ; preds = %6
  %9 = load i16, ptr getelementptr inbounds nuw (i8, ptr @args, i64 8), align 8
  %10 = and i16 %9, -1537
  br label %.sink.split

11:                                               ; preds = %6
  %12 = load i16, ptr getelementptr inbounds nuw (i8, ptr @args, i64 8), align 8
  %13 = and i16 %12, -1537
  %14 = or disjoint i16 %13, 1024
  br label %.sink.split

15:                                               ; preds = %6
  %16 = tail call i32 @strcasecmp(ptr noundef %1, ptr noundef nonnull @.str.47) #13
  %.not8 = icmp eq i32 %16, 0
  br i1 %.not8, label %17, label %21

17:                                               ; preds = %15
  %18 = load i16, ptr getelementptr inbounds nuw (i8, ptr @args, i64 8), align 8
  %19 = and i16 %18, -1537
  %20 = or disjoint i16 %19, 512
  br label %.sink.split

21:                                               ; preds = %15
  %22 = load i32, ptr @git_gettext_enabled, align 4, !tbaa !9
  %.not.i = icmp eq i32 %22, 0
  br i1 %.not.i, label %_.exit, label %23

23:                                               ; preds = %21
  %24 = tail call ptr @dcgettext(ptr noundef null, ptr noundef nonnull @.str.48, i32 noundef 5) #10
  br label %_.exit

_.exit:                                           ; preds = %21, %23
  %.0.i = phi ptr [ %24, %23 ], [ @.str.48, %21 ]
  %25 = tail call i32 (ptr, ...) @error(ptr noundef %.0.i, ptr noundef nonnull %0) #10
  br label %28

.sink.split:                                      ; preds = %17, %11, %8
  %.sink = phi i16 [ %10, %8 ], [ %14, %11 ], [ %20, %17 ]
  store i16 %.sink, ptr getelementptr inbounds nuw (i8, ptr @args, i64 8), align 8
  br label %26

26:                                               ; preds = %.sink.split, %4
  %27 = tail call i32 @git_default_config(ptr noundef nonnull %0, ptr noundef %1, ptr noundef %2, ptr noundef %3) #10
  br label %28

28:                                               ; preds = %26, %_.exit
  %.0 = phi i32 [ %27, %26 ], [ -1, %_.exit ]
  ret i32 %.0
}